; Function Attrs: nounwind uwtable
define dso_local range(i32 -901, 1) i32 @nghttp2_hd_deflate_init2(ptr noundef writeonly captures(none) initializes((0, 8), (32, 40), (48, 56), (60, 61)) %0, i64 noundef %1, ptr noundef %2) local_unnamed_addr #0 {
  %4 = getelementptr inbounds nuw i8, ptr %0, i64 32
  store ptr %2, ptr %4, align 8, !tbaa !34
  %5 = getelementptr inbounds nuw i8, ptr %0, i64 60
  store i8 0, ptr %5, align 4, !tbaa !38
  %6 = getelementptr inbounds nuw i8, ptr %0, i64 48
  store i64 4096, ptr %6, align 8, !tbaa !39
  %7 = tail call ptr @nghttp2_mem_malloc(ptr noundef %2, i64 noundef 1024) #13
  store ptr %7, ptr %0, align 8, !tbaa !40
  %8 = icmp eq ptr %7, null
  br i1 %8, label %hd_context_init.exit, label %9

9:                                                ; preds = %3
  %10 = getelementptr inbounds nuw i8, ptr %0, i64 8
  store i64 127, ptr %10, align 8, !tbaa !41
  %11 = getelementptr inbounds nuw i8, ptr %0, i64 16
  tail call void @llvm.memset.p0.i64(ptr noundef nonnull align 8 dereferenceable(16) %11, i8 0, i64 16, i1 false)
  %12 = getelementptr inbounds nuw i8, ptr %0, i64 40
  store i64 0, ptr %12, align 8, !tbaa !42
  %13 = getelementptr inbounds nuw i8, ptr %0, i64 56
  store i32 0, ptr %13, align 8, !tbaa !43
  %14 = getelementptr inbounds nuw i8, ptr %0, i64 64
  tail call void @llvm.memset.p0.i64(ptr noundef nonnull align 8 dereferenceable(1024) %14, i8 0, i64 1024, i1 false)
  %15 = icmp ult i64 %1, 4096
  br i1 %15, label %16, label %17

16:                                               ; preds = %9
  store i64 %1, ptr %6, align 8, !tbaa !49
  br label %17

17:                                               ; preds = %9, %16
  %.sink = phi i8 [ 1, %16 ], [ 0, %9 ]
  %18 = getelementptr inbounds nuw i8, ptr %0, i64 1104
  store i8 %.sink, ptr %18, align 8, !tbaa !44
  %19 = getelementptr inbounds nuw i8, ptr %0, i64 1088
  store i64 %1, ptr %19, align 8, !tbaa !47
  %20 = getelementptr inbounds nuw i8, ptr %0, i64 1096
  store i64 4294967295, ptr %20, align 8, !tbaa !48
  br label %hd_context_init.exit

hd_context_init.exit:                             ; preds = %3, %17
  %.0 = phi i32 [ 0, %17 ], [ -901, %3 ]
  ret i32 %.0
}